target datalayout = "e-m:e-p270:32:32-p271:32:32-p272:64:64-i64:64-i128:128-f80:128-n8:16:32:64-S128"
target triple = "x86_64-pc-linux-gnu"

%class.Node = type <{ ptr, ptr, ptr, i32, i32, i32, i32, i32, i32, i32, [4 x i8] }>

; Function Attrs: mustprogress nounwind uwtable
define linkonce_odr hidden noundef ptr @_ZNK4Node7as_MachEv(ptr noundef nonnull align 8 dereferenceable(52) %0) #1 comdat align 2 {
  %2 = alloca ptr, align 8
  store ptr %0, ptr %2, align 8
  %3 = load ptr, ptr %2, align 8
  ret ptr %3
}

; Function Attrs: mustprogress nounwind uwtable
define linkonce_odr hidden noundef zeroext i1 @_ZNK4Node7is_MachEv(ptr noundef nonnull align 8 dereferenceable(52) %0) #1 comdat align 2 {
  %2 = alloca ptr, align 8
  store ptr %0, ptr %2, align 8
  %3 = load ptr, ptr %2, align 8
  %4 = getelementptr inbounds %class.Node, ptr %3, i32 0, i32 8
  %5 = load i32, ptr %4, align 4
  %6 = and i32 %5, 3
  %7 = icmp eq i32 %6, 2
  ret i1 %7
}

; Function Attrs: mustprogress nounwind uwtable
define hidden noundef zeroext i1 @_ZNK4Node13rematerializeEv(ptr noundef nonnull align 8 dereferenceable(52) %0) #1 align 2 {
  %2 = alloca i1, align 1
  %3 = alloca ptr, align 8
  store ptr %0, ptr %3, align 8
  %4 = load ptr, ptr %3, align 8
  %5 = call noundef zeroext i1 @_ZNK4Node7is_MachEv(ptr noundef nonnull align 8 dereferenceable(52) %4)
  br i1 %5, label %6, label %9

6:                                                ; preds = %1
  %7 = call noundef ptr @_ZNK4Node7as_MachEv(ptr noundef nonnull align 8 dereferenceable(52) %4)
  %8 = call noundef zeroext i1 @_ZNK8MachNode13rematerializeEv(ptr noundef nonnull align 8 dereferenceable(64) %7)
  store i1 %8, ptr %2, align 1
  br label %14

9:                                                ; preds = %1
  %10 = getelementptr inbounds %class.Node, ptr %4, i32 0, i32 9
  %11 = load i32, ptr %10, align 8
  %12 = and i32 %11, 2
  %13 = icmp ne i32 %12, 0
  store i1 %13, ptr %2, align 1
  br label %14

14:                                               ; preds = %9, %6
  %15 = load i1, ptr %2, align 1
  ret i1 %15
}