; Function Attrs: mustprogress nounwind uwtable
define hidden noundef zeroext i1 @_ZNK4Node13rematerializeEv(ptr noundef nonnull align 8 dereferenceable(52) %0) local_unnamed_addr #0 align 2 {
  %2 = getelementptr inbounds i8, ptr %0, i64 44
  %3 = load i32, ptr %2, align 4
  %4 = and i32 %3, 3
  %5 = icmp eq i32 %4, 2
  br i1 %5, label %6, label %8

6:                                                ; preds = %1
  %7 = tail call noundef zeroext i1 @_ZNK8MachNode13rematerializeEv(ptr noundef nonnull align 8 dereferenceable(64) %0) #15
  br label %13

8:                                                ; preds = %1
  %9 = getelementptr inbounds i8, ptr %0, i64 48
  %10 = load i32, ptr %9, align 8
  %11 = and i32 %10, 2
  %12 = icmp ne i32 %11, 0
  br label %13

13:                                               ; preds = %8, %6
  %.0 = phi i1 [ %7, %6 ], [ %12, %8 ]
  ret i1 %.0
}